; Function Attrs: mustprogress nofree norecurse nosync nounwind sspstrong willreturn memory(argmem: read) uwtable
define internal range(i64 0, 3) i64 @pm_encoding_euc_kr_char_width(ptr noundef readonly captures(none) %0, i64 noundef %1) #2 {
  %3 = load i8, ptr %0, align 1, !tbaa !7
  %4 = icmp sgt i8 %3, -1
  br i1 %4, label %14, label %5

5:                                                ; preds = %2
  %6 = icmp slt i64 %1, 2
  %7 = add nsw i8 %3, 1
  %8 = icmp ult i8 %7, -94
  %or.cond9 = or i1 %6, %8
  br i1 %or.cond9, label %13, label %9

9:                                                ; preds = %5
  %10 = getelementptr i8, ptr %0, i64 1
  %11 = load i8, ptr %10, align 1, !tbaa !7
  %12 = add i8 %11, 1
  %or.cond10 = icmp ult i8 %12, -94
  br i1 %or.cond10, label %13, label %14

13:                                               ; preds = %9, %5
  br label %14

14:                                               ; preds = %9, %2, %13
  %.0 = phi i64 [ 0, %13 ], [ 1, %2 ], [ 2, %9 ]
  ret i64 %.0
}